Certificate:
    Data:
        Version: 3 (0x2)
        Serial Number: 3 (0x3)
    Signature Algorithm: sha256WithRSAEncryption
        Issuer: C=SY, ST=SY, L=SY, O=SY, OU=SY, CN=SY/emailAddress=SY
        Validity
            Not Before: Dec 25 08:01:05 2019 GMT
            Not After : Dec 24 08:01:05 2020 GMT
        Subject: C=CH, ST=LN, O=YU, OU=DX, CN=www.sn.com
        Subject Public Key Info:
            Public Key Algorithm: rsaEncryption
                Public-Key: (2048 bit)
                Modulus:
                    00:ab:8b:d1:60:e8:0e:83:9f:47:c1:ee:34:ed:e6:
                    81:f8:e9:b1:f2:3c:0a:79:f8:d1:8a:b8:68:98:22:
                    fe:bb:94:70:17:ef:c7:03:ff:02:f3:2d:15:5f:19:
                    db:d0:b5:86:88:cd:36:aa:4a:30:5c:b7:e9:2e:3d:
                    2c:51:94:21:4d:16:cb:81:ee:49:1d:c8:2d:a1:fb:
                    45:94:2b:93:c3:81:88:9d:b8:27:f6:79:8d:84:12:
                    7f:46:ff:e2:c1:10:30:18:f9:83:04:f7:1b:ec:33:
                    b6:42:ae:d5:ef:8a:1d:76:f4:b9:ab:e3:89:d4:b4:
                    20:a8:5a:44:33:ea:91:17:04:95:c0:82:5c:52:a4:
                    f2:00:db:32:71:c2:dd:a9:46:f2:d2:b8:ca:61:aa:
                    32:c6:bf:08:29:7d:4c:2d:06:db:9c:7f:59:cc:f4:
                    f0:20:98:fc:5d:f4:ce:cc:23:08:4c:7b:0e:24:d1:
                    68:0a:e2:1a:51:af:ae:ca:55:19:50:73:db:90:68:
                    89:26:05:12:98:c9:8b:22:a7:04:cb:0f:94:35:51:
                    64:28:f5:df:68:60:c7:aa:35:36:0e:da:f0:49:7f:
                    05:1a:84:1b:eb:32:eb:ec:f5:03:74:7d:5d:e8:5f:
                    0c:cb:4a:25:a5:1b:79:ec:b1:23:3f:94:e1:bc:9e:
                    7a:f3
                Exponent: 65537 (0x10001)
        X509v3 extensions:
            X509v3 Basic Constraints: 
                CA:FALSE
            X509v3 Key Usage: 
                Digital Signature, Non Repudiation, Key Encipherment
            X509v3 Subject Alternative Name: 
                DNS:www.sn.com
    Signature Algorithm: sha256WithRSAEncryption
         1f:45:1c:9c:3f:a7:65:62:56:21:d2:ad:65:1e:5d:98:51:a6:
         bc:f2:65:6f:bd:71:05:c6:87:c9:f6:27:2d:bb:4a:62:97:41:
         69:81:3b:3b:5a:17:41:8b:49:7f:44:e6:fd:76:77:c9:cc:62:
         46:d3:28:e1:c8:3f:a3:06:63:4b:22:a7:84:ce:9d:44:62:01:
         2c:ad:d3:c3:a4:01:e8:00:23:df:26:3a:2a:c3:d1:dc:b7:5e:
         cb:34:89:54:fe:28:1a:ec:d9:5c:bb:36:42:07:a8:8b:1b:82:
         5d:87:72:d2:31:f2:0d:26:51:9a:0c:c8:a8:72:a0:47:60:46:
         95:c9:32:74:7b:9e:0c:96:73:2d:79:b3:a2:c4:54:93:b5:dc:
         25:0a:ae:1b:9a:5c:9e:e1:97:67:7b:c5:d4:0a:95:72:10:13:
         5f:20:82:95:3a:49:c5:1c:ab:55:ef:88:55:58:44:78:a5:f0:
         dd:d7:f5:34:1e:d9:32:17:f8:3a:4f:9d:73:46:02:35:13:70:
         2d:64:7f:59:36:dc:b0:41:4c:4e:79:5d:78:03:9b:63:1f:d2:
         be:86:5c:76:9d:6d:31:9e:77:0e:90:38:4d:ec:cc:ad:05:2d:
         82:62:e3:f9:f4:30:63:f8:0b:43:1a:b2:ec:db:6f:98:65:fd:
         01:4e:d4:35
-----BEGIN CERTIFICATE-----
MIIDVjCCAj6gAwIBAgIBAzANBgkqhkiG9w0BAQsFADBhMQswCQYDVQQGEwJTWTEL
MAkGA1UECAwCU1kxCzAJBgNVBAcMAlNZMQswCQYDVQQKDAJTWTELMAkGA1UECwwC
U1kxCzAJBgNVBAMMAlNZMREwDwYJKoZIhvcNAQkBFgJTWTAeFw0xOTEyMjUwODAx
MDVaFw0yMDEyMjQwODAxMDVaMEkxCzAJBgNVBAYTAkNIMQswCQYDVQQIDAJMTjEL
MAkGA1UECgwCWVUxCzAJBgNVBAsMAkRYMRMwEQYDVQQDDAp3d3cuc24uY29tMIIB
IjANBgkqhkiG9w0BAQEFAAOCAQ8AMIIBCgKCAQEAq4vRYOgOg59Hwe407eaB+Omx
8jwKefjRirhomCL+u5RwF+/HA/8C8y0VXxnb0LWGiM02qkowXLfpLj0sUZQhTRbL
ge5JHcgtoftFlCuTw4GInbgn9nmNhBJ/Rv/iwRAwGPmDBPcb7DO2Qq7V74oddvS5
q+OJ1LQgqFpEM+qRFwSVwIJcUqTyANsyccLdqUby0rjKYaoyxr8IKX1MLQbbnH9Z
zPTwIJj8XfTOzCMITHsOJNFoCuIaUa+uylUZUHPbkGiJJgUSmMmLIqcEyw+UNVFk
KPXfaGDHqjU2DtrwSX8FGoQb6zLr7PUDdH1d6F8My0olpRt57LEjP5ThvJ568wID
AQABozEwLzAJBgNVHRMEAjAAMAsGA1UdDwQEAwIF4DAVBgNVHREEDjAMggp3d3cu
c24uY29tMA0GCSqGSIb3DQEBCwUAA4IBAQAfRRycP6dlYlYh0q1lHl2YUaa88mVv
vXEFxofJ9ictu0pil0FpgTs7WhdBi0l/ROb9dnfJzGJG0yjhyD+jBmNLIqeEzp1E
YgEsrdPDpAHoACPfJjoqw9Hct17LNIlU/iga7NlcuzZCB6iLG4Jdh3LSMfINJlGa
DMiocqBHYEaVyTJ0e54MlnMtebOixFSTtdwlCq4bmlye4Zdne8XUCpVyEBNfIIKV
OknFHKtV74hVWER4pfDd1/U0HtkyF/g6T51zRgI1E3AtZH9ZNtywQUxOeV14A5tj
H9K+hlx2nW0xnncOkDhN7MytBS2CYuP59DBj+AtDGrLs22+YZf0BTtQ1
-----END CERTIFICATE-----
